; Function Attrs: nounwind uwtable
define internal fastcc void @freshen_shared_index(ptr noundef %0, i32 noundef range(i32 0, 2) %1) unnamed_addr #0 {
  %3 = tail call i32 @check_and_freshen_file(ptr noundef %0, i32 noundef 1) #30
  %4 = icmp eq i32 %3, 0
  %5 = icmp ne i32 %1, 0
  %or.cond = and i1 %5, %4
  br i1 %or.cond, label %6, label %10

6:                                                ; preds = %2
  %7 = load i32, ptr @git_gettext_enabled, align 4, !tbaa !32
  %.not4.i = icmp eq i32 %7, 0
  br i1 %.not4.i, label %_.exit, label %8

8:                                                ; preds = %6
  %9 = tail call ptr @dcgettext(ptr noundef null, ptr noundef nonnull @.str.74, i32 noundef 5) #30
  br label %_.exit

_.exit:                                           ; preds = %6, %8
  %.0.i = phi ptr [ %9, %8 ], [ @.str.74, %6 ]
  tail call void (ptr, ...) @warning(ptr noundef %.0.i, ptr noundef %0) #30
  br label %10

10:                                               ; preds = %_.exit, %2
  ret void
}